target datalayout = "e-m:e-p270:32:32-p271:32:32-p272:64:64-i64:64-i128:128-f80:128-n8:16:32:64-S128"
target triple = "x86_64-pc-linux-gnu"

%struct.lua_State = type { %struct.GCRef, i8, i8, i8, i8, %struct.MRef, %struct.GCRef, ptr, ptr, %struct.MRef, %struct.MRef, %struct.GCRef, %struct.GCRef, ptr, i32 }
%struct.MRef = type { i64 }
%struct.GCRef = type { i64 }
%union.TValue = type { i64 }
%struct.global_State = type { ptr, ptr, %struct.GCState, %struct.GCstr, i8, i8, i8, i8, %struct.StrInternState, i32, %struct.GCRef, %struct.SBuf, %union.TValue, %union.TValue, %struct.Node, %union.TValue, %struct.GCupval, i32, i32, ptr, ptr, ptr, i32, i32, %struct.GCRef, %struct.MRef, %struct.MRef, %struct.PRNGState, [39 x %struct.GCRef] }
%struct.GCState = type { i64, i64, i8, i8, i8, i8, i32, %struct.GCRef, %struct.MRef, %struct.GCRef, %struct.GCRef, %struct.GCRef, %struct.GCRef, i64, i64, i32, i32, %struct.MRef }
%struct.GCstr = type { %struct.GCRef, i8, i8, i8, i8, i32, i32, i32 }
%struct.StrInternState = type { ptr, i32, i32, i32, i8, i8, i8, i8, i64 }
%struct.SBuf = type { ptr, ptr, ptr, %struct.MRef }
%struct.Node = type { %union.TValue, %union.TValue, %struct.MRef }
%struct.GCupval = type { %struct.GCRef, i8, i8, i8, i8, %union.anon, %struct.MRef, i32 }
%union.anon = type { %struct.anon.1 }
%struct.anon.1 = type { %struct.GCRef, %struct.GCRef }
%struct.PRNGState = type { [4 x i64] }
%struct.GCudata = type { %struct.GCRef, i8, i8, i8, i8, %struct.GCRef, i32, %struct.GCRef, i32 }
%struct.IOFileUD = type { ptr, i32 }

; Function Attrs: nounwind uwtable
define internal ptr @io_stdfile(ptr noundef %0, i64 noundef %1) #0 {
  %3 = alloca ptr, align 8
  %4 = alloca i64, align 8
  %5 = alloca ptr, align 8
  store ptr %0, ptr %3, align 8, !tbaa !4
  store i64 %1, ptr %4, align 8, !tbaa !37
  call void @llvm.lifetime.start.p0(i64 8, ptr %5) #10
  %6 = load ptr, ptr %3, align 8, !tbaa !4
  %7 = getelementptr inbounds nuw %struct.lua_State, ptr %6, i32 0, i32 5
  %8 = getelementptr inbounds nuw %struct.MRef, ptr %7, i32 0, i32 0
  %9 = load i64, ptr %8, align 8, !tbaa !18
  %10 = inttoptr i64 %9 to ptr
  %11 = getelementptr inbounds nuw %struct.global_State, ptr %10, i32 0, i32 28
  %12 = load i64, ptr %4, align 8, !tbaa !37
  %13 = getelementptr inbounds [39 x %struct.GCRef], ptr %11, i64 0, i64 %12
  %14 = getelementptr inbounds nuw %struct.GCRef, ptr %13, i32 0, i32 0
  %15 = load i64, ptr %14, align 8, !tbaa !19
  %16 = inttoptr i64 %15 to ptr
  %17 = getelementptr inbounds %struct.GCudata, ptr %16, i64 1
  store ptr %17, ptr %5, align 8, !tbaa !25
  %18 = load ptr, ptr %5, align 8, !tbaa !25
  %19 = getelementptr inbounds nuw %struct.IOFileUD, ptr %18, i32 0, i32 0
  %20 = load ptr, ptr %19, align 8, !tbaa !32
  %21 = icmp eq ptr %20, null
  br i1 %21, label %22, label %24

22:                                               ; preds = %2
  %23 = load ptr, ptr %3, align 8, !tbaa !4
  call void @lj_err_caller(ptr noundef %23, i32 noundef 1560) #11
  unreachable

24:                                               ; preds = %2
  %25 = load ptr, ptr %5, align 8, !tbaa !25
  call void @llvm.lifetime.end.p0(i64 8, ptr %5) #10
  ret ptr %25
}

; Function Attrs: nounwind uwtable
define internal i32 @lj_cf_io_read(ptr noundef %0) #0 {
  %2 = alloca ptr, align 8
  store ptr %0, ptr %2, align 8, !tbaa !4
  %3 = load ptr, ptr %2, align 8, !tbaa !4
  %4 = load ptr, ptr %2, align 8, !tbaa !4
  %5 = call ptr @io_stdfile(ptr noundef %4, i64 noundef 36)
  %6 = call i32 @io_file_read(ptr noundef %3, ptr noundef %5, i32 noundef 0)
  ret i32 %6
}