; Function Attrs: nounwind uwtable
define internal i32 @lj_cf_io_read(ptr noundef %0) #0 {
  %2 = getelementptr inbounds nuw i8, ptr %0, i64 16
  %3 = load i64, ptr %2, align 8, !tbaa !23
  %4 = inttoptr i64 %3 to ptr
  %5 = getelementptr inbounds nuw i8, ptr %4, i64 712
  %6 = load i64, ptr %5, align 8, !tbaa !24
  %7 = inttoptr i64 %6 to ptr
  %8 = getelementptr inbounds nuw i8, ptr %7, i64 48
  %9 = load ptr, ptr %8, align 8, !tbaa !20
  %10 = icmp eq ptr %9, null
  br i1 %10, label %11, label %io_stdfile.exit

11:                                               ; preds = %1
  tail call void @lj_err_caller(ptr noundef nonnull %0, i32 noundef 1560) #11
  unreachable

io_stdfile.exit:                                  ; preds = %1
  %12 = tail call fastcc i32 @io_file_read(ptr noundef nonnull %0, ptr nonnull %9, i32 noundef 0)
  ret i32 %12
}